; Function Attrs: mustprogress uwtable
define noundef zeroext i1 @_ZN6google8protobuf24SimpleDescriptorDatabase3AddERKNS0_19FileDescriptorProtoE(ptr noundef nonnull align 8 dereferenceable(104) %this, ptr noundef nonnull align 8 dereferenceable(224) %file) local_unnamed_addr #6 align 2 personality ptr @__gxx_personality_v0 {
entry:
  %call = tail call noalias noundef nonnull dereferenceable(224) ptr @_Znwm(i64 noundef 224) #30
  invoke void @_ZN6google8protobuf19FileDescriptorProtoC2EPNS0_5ArenaE(ptr noundef nonnull align 8 dereferenceable(224) %call, ptr noundef null)
          to label %invoke.cont unwind label %lpad

invoke.cont:                                      ; preds = %entry
  tail call void @_ZN6google8protobuf19FileDescriptorProto8CopyFromERKS1_(ptr noundef nonnull align 8 dereferenceable(224) %call, ptr noundef nonnull align 8 dereferenceable(224) %file)
  %call2 = tail call noundef zeroext i1 @_ZN6google8protobuf24SimpleDescriptorDatabase9AddAndOwnEPKNS0_19FileDescriptorProtoE(ptr noundef nonnull align 8 dereferenceable(104) %this, ptr noundef nonnull %call)
  ret i1 %call2

lpad:                                             ; preds = %entry
  %0 = landingpad { ptr, i32 }
          cleanup
  tail call void @_ZdlPv(ptr noundef nonnull %call) #29
  resume { ptr, i32 } %0
}